target datalayout = "e-m:e-p270:32:32-p271:32:32-p272:64:64-i64:64-i128:128-f80:128-n8:16:32:64-S128"
target triple = "x86_64-pc-linux-gnu"

%"struct.dmlc::LogMessageFatal::Entry" = type { %"class.std::__cxx11::basic_ostringstream" }
%"class.std::__cxx11::basic_ostringstream" = type { %"class.std::basic_ostream.base", %"class.std::__cxx11::basic_stringbuf", %"class.std::basic_ios" }
%"class.std::basic_ostream.base" = type { ptr }
%"class.std::__cxx11::basic_stringbuf" = type { %"class.std::basic_streambuf", i32, %"class.std::__cxx11::basic_string" }
%"class.std::basic_streambuf" = type { ptr, ptr, ptr, ptr, ptr, ptr, ptr, %"class.std::locale" }
%"class.std::locale" = type { ptr }
%"class.std::__cxx11::basic_string" = type { %"struct.std::__cxx11::basic_string<char>::_Alloc_hider", i64, %union.anon }
%"struct.std::__cxx11::basic_string<char>::_Alloc_hider" = type { ptr }
%union.anon = type { i64, [8 x i8] }
%"class.std::basic_ios" = type { %"class.std::ios_base", ptr, i8, i8, ptr, ptr, ptr, ptr }
%"class.std::ios_base" = type { ptr, i64, i64, i32, i32, i32, ptr, %"struct.std::ios_base::_Words", [8 x %"struct.std::ios_base::_Words"], i32, ptr, %"class.std::locale" }
%"struct.std::ios_base::_Words" = type { ptr, i64 }
%"class.dmlc::LogMessageFatal" = type { i8 }
%"struct.xgboost::DeviceOrd" = type { i16, i16 }

@.str = private unnamed_addr constant [110 x i8] c"generated/home/dtcxzyw/WorkSpace/Projects/compilers/llvm-opt-benchmark/bench/xgboost/xgboost/src/data/data.cc\00", align 1
@.str.247 = private unnamed_addr constant [129 x i8] c"Invalid device ordinal. Data is associated with a different device ordinal than the booster. The device ordinal of the data is: \00", align 1
@.str.248 = private unnamed_addr constant [41 x i8] c"; the device ordinal of the Booster is: \00", align 1

; Function Attrs: inlinehint mustprogress nounwind uwtable
define linkonce_odr noundef i32 @_ZStorSt12_Ios_IostateS_(i32 noundef %0, i32 noundef %1) #10 comdat {
  %3 = alloca i32, align 4
  %4 = alloca i32, align 4
  store i32 %0, ptr %3, align 4, !tbaa !1031
  store i32 %1, ptr %4, align 4, !tbaa !1031
  %5 = load i32, ptr %3, align 4, !tbaa !1031
  %6 = load i32, ptr %4, align 4, !tbaa !1031
  %7 = or i32 %5, %6
  ret i32 %7
}

; Function Attrs: mustprogress nounwind uwtable
define available_externally noundef i32 @_ZNKSt9basic_iosIcSt11char_traitsIcEE7rdstateEv(ptr noundef nonnull align 8 dereferenceable(264) %0) #6 align 2 {
  %2 = alloca ptr, align 8
  store ptr %0, ptr %2, align 8, !tbaa !628
  %3 = load ptr, ptr %2, align 8
  %4 = getelementptr inbounds nuw %"class.std::ios_base", ptr %3, i32 0, i32 5
  %5 = load i32, ptr %4, align 8, !tbaa !1032
  ret i32 %5
}

; Function Attrs: mustprogress nounwind uwtable
define linkonce_odr noundef i64 @_ZNSt11char_traitsIcE6lengthEPKc(ptr noundef %0) #6 comdat align 2 {
  %2 = alloca ptr, align 8
  store ptr %0, ptr %2, align 8, !tbaa !138
  %3 = load ptr, ptr %2, align 8, !tbaa !138
  %4 = call i64 @strlen(ptr noundef %3) #3
  ret i64 %4
}

; Function Attrs: mustprogress uwtable
define available_externally void @_ZNSt9basic_iosIcSt11char_traitsIcEE8setstateESt12_Ios_Iostate(ptr noundef nonnull align 8 dereferenceable(264) %0, i32 noundef %1) #5 align 2 {
  %3 = alloca ptr, align 8
  %4 = alloca i32, align 4
  store ptr %0, ptr %3, align 8, !tbaa !628
  store i32 %1, ptr %4, align 4, !tbaa !1031
  %5 = load ptr, ptr %3, align 8
  %6 = call noundef i32 @_ZNKSt9basic_iosIcSt11char_traitsIcEE7rdstateEv(ptr noundef nonnull align 8 dereferenceable(264) %5)
  %7 = load i32, ptr %4, align 4, !tbaa !1031
  %8 = call noundef i32 @_ZStorSt12_Ios_IostateS_(i32 noundef %6, i32 noundef %7)
  call void @_ZNSt9basic_iosIcSt11char_traitsIcEE5clearESt12_Ios_Iostate(ptr noundef nonnull align 8 dereferenceable(264) %5, i32 noundef %8)
  ret void
}

; Function Attrs: inlinehint mustprogress uwtable
define available_externally noundef nonnull align 8 dereferenceable(8) ptr @_ZStlsISt11char_traitsIcEERSt13basic_ostreamIcT_ES5_PKc(ptr noundef nonnull align 8 dereferenceable(8) %0, ptr noundef %1) #4 {
  %3 = alloca ptr, align 8
  %4 = alloca ptr, align 8
  store ptr %0, ptr %3, align 8, !tbaa !134
  store ptr %1, ptr %4, align 8, !tbaa !138
  %5 = load ptr, ptr %4, align 8, !tbaa !138
  %6 = icmp ne ptr %5, null
  br i1 %6, label %13, label %7

7:                                                ; preds = %2
  %8 = load ptr, ptr %3, align 8, !tbaa !134
  %9 = load ptr, ptr %8, align 8, !tbaa !141
  %10 = getelementptr i8, ptr %9, i64 -24
  %11 = load i64, ptr %10, align 8
  %12 = getelementptr inbounds i8, ptr %8, i64 %11
  call void @_ZNSt9basic_iosIcSt11char_traitsIcEE8setstateESt12_Ios_Iostate(ptr noundef nonnull align 8 dereferenceable(264) %12, i32 noundef 1)
  br label %19

13:                                               ; preds = %2
  %14 = load ptr, ptr %3, align 8, !tbaa !134
  %15 = load ptr, ptr %4, align 8, !tbaa !138
  %16 = load ptr, ptr %4, align 8, !tbaa !138
  %17 = call noundef i64 @_ZNSt11char_traitsIcE6lengthEPKc(ptr noundef %16)
  %18 = call noundef nonnull align 8 dereferenceable(8) ptr @_ZSt16__ostream_insertIcSt11char_traitsIcEERSt13basic_ostreamIT_T0_ES6_PKS3_l(ptr noundef nonnull align 8 dereferenceable(8) %14, ptr noundef %15, i64 noundef %17)
  br label %19

19:                                               ; preds = %13, %7
  %20 = load ptr, ptr %3, align 8, !tbaa !134
  ret ptr %20
}

; Function Attrs: mustprogress uwtable
define linkonce_odr noundef nonnull align 8 dereferenceable(112) ptr @_ZN4dmlc15LogMessageFatal6streamB5cxx11Ev(ptr noundef nonnull align 1 dereferenceable(1) %0) #5 comdat align 2 {
  %2 = alloca ptr, align 8
  store ptr %0, ptr %2, align 8, !tbaa !143
  %3 = load ptr, ptr %2, align 8
  %4 = call noundef nonnull align 8 dereferenceable(376) ptr @_ZN4dmlc15LogMessageFatal8GetEntryEv(ptr noundef nonnull align 1 dereferenceable(1) %3)
  %5 = getelementptr inbounds nuw %"struct.dmlc::LogMessageFatal::Entry", ptr %4, i32 0, i32 0
  ret ptr %5
}

; Function Attrs: mustprogress uwtable
define linkonce_odr void @_ZN4dmlc15LogMessageFatalC2EPKci(ptr noundef nonnull align 1 dereferenceable(1) %0, ptr noundef %1, i32 noundef %2) unnamed_addr #5 comdat align 2 {
  %4 = alloca ptr, align 8
  %5 = alloca ptr, align 8
  %6 = alloca i32, align 4
  store ptr %0, ptr %4, align 8, !tbaa !143
  store ptr %1, ptr %5, align 8, !tbaa !138
  store i32 %2, ptr %6, align 4, !tbaa !40
  %7 = load ptr, ptr %4, align 8
  %8 = call noundef nonnull align 8 dereferenceable(376) ptr @_ZN4dmlc15LogMessageFatal8GetEntryEv(ptr noundef nonnull align 1 dereferenceable(1) %7)
  %9 = load ptr, ptr %5, align 8, !tbaa !138
  %10 = load i32, ptr %6, align 4, !tbaa !40
  call void @_ZN4dmlc15LogMessageFatal5Entry4InitEPKci(ptr noundef nonnull align 8 dereferenceable(376) %8, ptr noundef %9, i32 noundef %10)
  ret void
}

; Function Attrs: mustprogress nounwind uwtable
define linkonce_odr noundef zeroext i1 @_ZNK7xgboost9DeviceOrdeqERKS0_(ptr noundef nonnull align 2 dereferenceable(4) %0, ptr noundef nonnull align 2 dereferenceable(4) %1) #6 comdat align 2 {
  %3 = alloca ptr, align 8
  %4 = alloca ptr, align 8
  store ptr %0, ptr %3, align 8, !tbaa !818
  store ptr %1, ptr %4, align 8, !tbaa !818
  %5 = load ptr, ptr %3, align 8
  %6 = getelementptr inbounds nuw %"struct.xgboost::DeviceOrd", ptr %5, i32 0, i32 0
  %7 = load i16, ptr %6, align 2, !tbaa !820
  %8 = sext i16 %7 to i32
  %9 = load ptr, ptr %4, align 8, !tbaa !818
  %10 = getelementptr inbounds nuw %"struct.xgboost::DeviceOrd", ptr %9, i32 0, i32 0
  %11 = load i16, ptr %10, align 2, !tbaa !820
  %12 = sext i16 %11 to i32
  %13 = icmp eq i32 %8, %12
  br i1 %13, label %14, label %23

14:                                               ; preds = %2
  %15 = getelementptr inbounds nuw %"struct.xgboost::DeviceOrd", ptr %5, i32 0, i32 1
  %16 = load i16, ptr %15, align 2, !tbaa !939
  %17 = sext i16 %16 to i32
  %18 = load ptr, ptr %4, align 8, !tbaa !818
  %19 = getelementptr inbounds nuw %"struct.xgboost::DeviceOrd", ptr %18, i32 0, i32 1
  %20 = load i16, ptr %19, align 2, !tbaa !939
  %21 = sext i16 %20 to i32
  %22 = icmp eq i32 %17, %21
  br label %23

23:                                               ; preds = %14, %2
  %24 = phi i1 [ false, %2 ], [ %22, %14 ]
  ret i1 %24
}

; Function Attrs: mustprogress nounwind uwtable
define linkonce_odr noundef zeroext i1 @_ZNK7xgboost9DeviceOrd5IsCPUEv(ptr noundef nonnull align 2 dereferenceable(4) %0) #6 comdat align 2 {
  %2 = alloca ptr, align 8
  store ptr %0, ptr %2, align 8, !tbaa !818
  %3 = load ptr, ptr %2, align 8
  %4 = getelementptr inbounds nuw %"struct.xgboost::DeviceOrd", ptr %3, i32 0, i32 0
  %5 = load i16, ptr %4, align 2, !tbaa !820
  %6 = sext i16 %5 to i32
  %7 = icmp eq i32 %6, 0
  ret i1 %7
}

; Function Attrs: mustprogress uwtable
define internal void @_ZN7xgboost12_GLOBAL__N_111CheckDeviceIfEEvNS_9DeviceOrdERKNS_16HostDeviceVectorIT_EE(i32 %0, ptr noundef nonnull align 8 dereferenceable(8) %1) #5 personality ptr @__gxx_personality_v0 {
  %3 = alloca %"struct.xgboost::DeviceOrd", align 2
  %4 = alloca ptr, align 8
  %5 = alloca i8, align 1
  %6 = alloca %"struct.xgboost::DeviceOrd", align 2
  %7 = alloca %"struct.xgboost::DeviceOrd", align 2
  %8 = alloca %"class.dmlc::LogMessageFatal", align 1
  %9 = alloca ptr, align 8
  %10 = alloca i32, align 4
  %11 = alloca %"struct.xgboost::DeviceOrd", align 2
  %12 = alloca %"struct.xgboost::DeviceOrd", align 2
  store i32 %0, ptr %3, align 2
  store ptr %1, ptr %4, align 8, !tbaa !335
  call void @llvm.lifetime.start.p0(i64 1, ptr %5) #3
  call void @llvm.lifetime.start.p0(i64 4, ptr %6) #3
  %13 = load ptr, ptr %4, align 8, !tbaa !335
  %14 = call i32 @_ZNK7xgboost16HostDeviceVectorIfE6DeviceEv(ptr noundef nonnull align 8 dereferenceable(8) %13)
  store i32 %14, ptr %6, align 2
  %15 = call noundef zeroext i1 @_ZNK7xgboost9DeviceOrd5IsCPUEv(ptr noundef nonnull align 2 dereferenceable(4) %6)
  call void @llvm.lifetime.start.p0(i64 4, ptr %7) #3
  br i1 %15, label %22, label %16

16:                                               ; preds = %2
  %17 = call noundef zeroext i1 @_ZNK7xgboost9DeviceOrd5IsCPUEv(ptr noundef nonnull align 2 dereferenceable(4) %3)
  br i1 %17, label %22, label %18

18:                                               ; preds = %16
  %19 = load ptr, ptr %4, align 8, !tbaa !335
  %20 = call i32 @_ZNK7xgboost16HostDeviceVectorIfE6DeviceEv(ptr noundef nonnull align 8 dereferenceable(8) %19)
  store i32 %20, ptr %7, align 2
  %21 = call noundef zeroext i1 @_ZNK7xgboost9DeviceOrdeqERKS0_(ptr noundef nonnull align 2 dereferenceable(4) %7, ptr noundef nonnull align 2 dereferenceable(4) %3)
  br label %22

22:                                               ; preds = %18, %16, %2
  %23 = phi i1 [ true, %16 ], [ true, %2 ], [ %21, %18 ]
  call void @llvm.lifetime.end.p0(i64 4, ptr %7) #3
  call void @llvm.lifetime.end.p0(i64 4, ptr %6) #3
  %24 = zext i1 %23 to i8
  store i8 %24, ptr %5, align 1, !tbaa !72
  %25 = load i8, ptr %5, align 1, !tbaa !72, !range !345, !noundef !346
  %26 = trunc i8 %25 to i1
  br i1 %26, label %48, label %27

27:                                               ; preds = %22
  call void @llvm.lifetime.start.p0(i64 1, ptr %8) #3
  call void @_ZN4dmlc15LogMessageFatalC2EPKci(ptr noundef nonnull align 1 dereferenceable(1) %8, ptr noundef @.str, i32 noundef 785)
  %28 = invoke noundef nonnull align 8 dereferenceable(112) ptr @_ZN4dmlc15LogMessageFatal6streamB5cxx11Ev(ptr noundef nonnull align 1 dereferenceable(1) %8)
          to label %29 unwind label %43

29:                                               ; preds = %27
  %30 = invoke noundef nonnull align 8 dereferenceable(8) ptr @_ZStlsISt11char_traitsIcEERSt13basic_ostreamIcT_ES5_PKc(ptr noundef nonnull align 8 dereferenceable(8) %28, ptr noundef @.str.247)
          to label %31 unwind label %43

31:                                               ; preds = %29
  %32 = load ptr, ptr %4, align 8, !tbaa !335
  %33 = invoke i32 @_ZNK7xgboost16HostDeviceVectorIfE6DeviceEv(ptr noundef nonnull align 8 dereferenceable(8) %32)
          to label %34 unwind label %43

34:                                               ; preds = %31
  store i32 %33, ptr %11, align 2
  %35 = load i32, ptr %11, align 2
  %36 = invoke noundef nonnull align 8 dereferenceable(8) ptr @_ZN7xgboostlsERSoNS_9DeviceOrdE(ptr noundef nonnull align 8 dereferenceable(8) %30, i32 %35)
          to label %37 unwind label %43

37:                                               ; preds = %34
  %38 = invoke noundef nonnull align 8 dereferenceable(8) ptr @_ZStlsISt11char_traitsIcEERSt13basic_ostreamIcT_ES5_PKc(ptr noundef nonnull align 8 dereferenceable(8) %36, ptr noundef @.str.248)
          to label %39 unwind label %43

39:                                               ; preds = %37
  call void @llvm.memcpy.p0.p0.i64(ptr align 2 %12, ptr align 2 %3, i64 4, i1 false), !tbaa.struct !379
  %40 = load i32, ptr %12, align 2
  %41 = invoke noundef nonnull align 8 dereferenceable(8) ptr @_ZN7xgboostlsERSoNS_9DeviceOrdE(ptr noundef nonnull align 8 dereferenceable(8) %38, i32 %40)
          to label %42 unwind label %43

42:                                               ; preds = %39
  call void @_ZN4dmlc15LogMessageFatalD2Ev(ptr noundef nonnull align 1 dereferenceable(1) %8)
  call void @llvm.lifetime.end.p0(i64 1, ptr %8) #3
  br label %48

43:                                               ; preds = %39, %37, %34, %31, %29, %27
  %44 = landingpad { ptr, i32 }
          cleanup
  %45 = extractvalue { ptr, i32 } %44, 0
  store ptr %45, ptr %9, align 8
  %46 = extractvalue { ptr, i32 } %44, 1
  store i32 %46, ptr %10, align 4
  invoke void @_ZN4dmlc15LogMessageFatalD2Ev(ptr noundef nonnull align 1 dereferenceable(1) %8)
          to label %47 unwind label %54

47:                                               ; preds = %43
  call void @llvm.lifetime.end.p0(i64 1, ptr %8) #3
  call void @llvm.lifetime.end.p0(i64 1, ptr %5) #3
  br label %49

48:                                               ; preds = %42, %22
  call void @llvm.lifetime.end.p0(i64 1, ptr %5) #3
  ret void

49:                                               ; preds = %47
  %50 = load ptr, ptr %9, align 8
  %51 = load i32, ptr %10, align 4
  %52 = insertvalue { ptr, i32 } poison, ptr %50, 0
  %53 = insertvalue { ptr, i32 } %52, i32 %51, 1
  resume { ptr, i32 } %53

54:                                               ; preds = %43
  %55 = landingpad { ptr, i32 }
          catch ptr null
  %56 = extractvalue { ptr, i32 } %55, 0
  call void @__clang_call_terminate(ptr %56) #28
  unreachable
}