; Function Attrs: mustprogress uwtable
define internal fastcc void @_ZN7xgboost12_GLOBAL__N_111CheckDeviceIfEEvNS_9DeviceOrdERKNS_16HostDeviceVectorIT_EE(i32 %0, ptr noundef nonnull align 8 dereferenceable(8) %1) unnamed_addr #5 personality ptr @__gxx_personality_v0 {
  %3 = alloca %"class.dmlc::LogMessageFatal", align 1
  %.sroa.09.0.extract.trunc = trunc i32 %0 to i16
  %4 = tail call i32 @_ZNK7xgboost16HostDeviceVectorIfE6DeviceEv(ptr noundef nonnull align 8 dereferenceable(8) %1)
  %5 = and i32 %4, 65535
  %6 = icmp eq i32 %5, 0
  %7 = icmp eq i16 %.sroa.09.0.extract.trunc, 0
  %or.cond = select i1 %6, i1 true, i1 %7
  br i1 %or.cond, label %.critedge, label %8

8:                                                ; preds = %2
  %9 = tail call i32 @_ZNK7xgboost16HostDeviceVectorIfE6DeviceEv(ptr noundef nonnull align 8 dereferenceable(8) %1)
  %.sroa.0.0.extract.trunc = trunc i32 %9 to i16
  %10 = icmp eq i16 %.sroa.0.0.extract.trunc, %.sroa.09.0.extract.trunc
  %.unshifted = xor i32 %9, %0
  %11 = icmp ult i32 %.unshifted, 65536
  %12 = and i1 %10, %11
  br i1 %12, label %.critedge, label %13

13:                                               ; preds = %8
  call void @llvm.lifetime.start.p0(i64 1, ptr nonnull %3) #21
  %14 = call noundef nonnull align 8 dereferenceable(376) ptr @_ZN4dmlc15LogMessageFatal8GetEntryEv(ptr noundef nonnull align 1 dereferenceable(1) %3)
  call void @_ZN4dmlc15LogMessageFatal5Entry4InitEPKci(ptr noundef nonnull align 8 dereferenceable(376) %14, ptr noundef nonnull @.str, i32 noundef 785)
  %15 = invoke noundef nonnull align 8 dereferenceable(376) ptr @_ZN4dmlc15LogMessageFatal8GetEntryEv(ptr noundef nonnull align 1 dereferenceable(1) %3)
          to label %_ZN4dmlc15LogMessageFatal6streamB5cxx11Ev.exit unwind label %24

_ZN4dmlc15LogMessageFatal6streamB5cxx11Ev.exit:   ; preds = %13
  %16 = invoke noundef nonnull align 8 dereferenceable(8) ptr @_ZSt16__ostream_insertIcSt11char_traitsIcEERSt13basic_ostreamIT_T0_ES6_PKS3_l(ptr noundef nonnull align 8 dereferenceable(8) %15, ptr noundef nonnull @.str.247, i64 noundef 128)
          to label %_ZStlsISt11char_traitsIcEERSt13basic_ostreamIcT_ES5_PKc.exit unwind label %24

_ZStlsISt11char_traitsIcEERSt13basic_ostreamIcT_ES5_PKc.exit: ; preds = %_ZN4dmlc15LogMessageFatal6streamB5cxx11Ev.exit
  %17 = invoke i32 @_ZNK7xgboost16HostDeviceVectorIfE6DeviceEv(ptr noundef nonnull align 8 dereferenceable(8) %1)
          to label %18 unwind label %24

18:                                               ; preds = %_ZStlsISt11char_traitsIcEERSt13basic_ostreamIcT_ES5_PKc.exit
  %19 = invoke noundef nonnull align 8 dereferenceable(8) ptr @_ZN7xgboostlsERSoNS_9DeviceOrdE(ptr noundef nonnull align 8 dereferenceable(8) %15, i32 %17)
          to label %20 unwind label %24

20:                                               ; preds = %18
  %21 = invoke noundef nonnull align 8 dereferenceable(8) ptr @_ZSt16__ostream_insertIcSt11char_traitsIcEERSt13basic_ostreamIT_T0_ES6_PKS3_l(ptr noundef nonnull align 8 dereferenceable(8) %19, ptr noundef nonnull @.str.248, i64 noundef 40)
          to label %_ZStlsISt11char_traitsIcEERSt13basic_ostreamIcT_ES5_PKc.exit6 unwind label %24

_ZStlsISt11char_traitsIcEERSt13basic_ostreamIcT_ES5_PKc.exit6: ; preds = %20
  %22 = invoke noundef nonnull align 8 dereferenceable(8) ptr @_ZN7xgboostlsERSoNS_9DeviceOrdE(ptr noundef nonnull align 8 dereferenceable(8) %19, i32 %0)
          to label %23 unwind label %24

23:                                               ; preds = %_ZStlsISt11char_traitsIcEERSt13basic_ostreamIcT_ES5_PKc.exit6
  call void @_ZN4dmlc15LogMessageFatalD2Ev(ptr noundef nonnull align 1 dereferenceable(1) %3)
  call void @llvm.lifetime.end.p0(i64 1, ptr nonnull %3) #21
  br label %.critedge

24:                                               ; preds = %20, %_ZN4dmlc15LogMessageFatal6streamB5cxx11Ev.exit, %13, %_ZStlsISt11char_traitsIcEERSt13basic_ostreamIcT_ES5_PKc.exit6, %18, %_ZStlsISt11char_traitsIcEERSt13basic_ostreamIcT_ES5_PKc.exit
  %25 = landingpad { ptr, i32 }
          cleanup
  invoke void @_ZN4dmlc15LogMessageFatalD2Ev(ptr noundef nonnull align 1 dereferenceable(1) %3)
          to label %26 unwind label %27

26:                                               ; preds = %24
  call void @llvm.lifetime.end.p0(i64 1, ptr nonnull %3) #21
  resume { ptr, i32 } %25

.critedge:                                        ; preds = %2, %23, %8
  ret void

27:                                               ; preds = %24
  %28 = landingpad { ptr, i32 }
          catch ptr null
  %29 = extractvalue { ptr, i32 } %28, 0
  call void @__clang_call_terminate(ptr %29) #38
  unreachable
}